; Function Attrs: mustprogress nounwind uwtable
define noundef i32 @_ZN7glslang12TScanContext18nonreservedKeywordEii(ptr noundef nonnull align 8 dereferenceable(76) %0, i32 noundef %1, i32 noundef %2) local_unnamed_addr #0 align 2 {
  %4 = getelementptr inbounds nuw i8, ptr %0, i64 8
  %5 = load ptr, ptr %4, align 8
  %6 = getelementptr inbounds nuw i8, ptr %5, i64 12
  %7 = load i32, ptr %6, align 4
  %8 = icmp eq i32 %7, 8
  %9 = getelementptr inbounds nuw i8, ptr %5, i64 24
  %10 = load i32, ptr %9, align 8
  br i1 %8, label %11, label %13

11:                                               ; preds = %3
  %12 = icmp slt i32 %10, %1
  br i1 %12, label %15, label %.thread

13:                                               ; preds = %3
  %14 = icmp slt i32 %10, %2
  br i1 %14, label %15, label %.thread

15:                                               ; preds = %13, %11
  %16 = getelementptr inbounds nuw i8, ptr %5, i64 8
  %17 = load i8, ptr %16, align 8
  %18 = trunc i8 %17 to i1
  br i1 %18, label %19, label %26

19:                                               ; preds = %15
  %20 = getelementptr inbounds nuw i8, ptr %0, i64 24
  %21 = getelementptr inbounds nuw i8, ptr %0, i64 64
  %22 = load ptr, ptr %21, align 8
  %23 = load ptr, ptr %5, align 8
  %24 = getelementptr inbounds nuw i8, ptr %23, i64 352
  %25 = load ptr, ptr %24, align 8
  tail call void (ptr, ptr, ptr, ptr, ptr, ...) %25(ptr noundef nonnull align 8 dereferenceable(1280) %5, ptr noundef nonnull align 8 dereferenceable(24) %20, ptr noundef nonnull @.str.504, ptr noundef %22, ptr noundef nonnull @.str.446) #15
  br label %26

26:                                               ; preds = %19, %15
  %27 = tail call noundef i32 @_ZN7glslang12TScanContext16identifierOrTypeEv(ptr noundef nonnull align 8 dereferenceable(76) %0)
  br label %30

.thread:                                          ; preds = %11, %13
  %28 = getelementptr inbounds nuw i8, ptr %0, i64 72
  %29 = load i32, ptr %28, align 8
  br label %30

30:                                               ; preds = %.thread, %26
  %.0 = phi i32 [ %27, %26 ], [ %29, %.thread ]
  ret i32 %.0
}